; Function Attrs: mustprogress nofree norecurse nosync nounwind willreturn memory(argmem: readwrite) uwtable
define hidden void @_ZN2cv10xobjdetect14CvLBPEvaluator7Feature10calcPointsEi(ptr nocapture noundef nonnull align 4 dereferenceable(100) %0, i32 noundef %1) local_unnamed_addr #6 align 2 {
  %3 = getelementptr inbounds i8, ptr %0, i64 80
  %4 = load i32, ptr %3, align 4
  %5 = getelementptr inbounds i8, ptr %0, i64 84
  %6 = load i32, ptr %5, align 4
  %7 = getelementptr inbounds i8, ptr %0, i64 88
  %8 = load i32, ptr %7, align 4
  %9 = getelementptr inbounds i8, ptr %0, i64 92
  %10 = load i32, ptr %9, align 4
  store i32 %4, ptr %0, align 4
  %.sroa.2.0..sroa_idx = getelementptr inbounds i8, ptr %0, i64 4
  store i32 %6, ptr %.sroa.2.0..sroa_idx, align 4
  %.sroa.3.0..sroa_idx = getelementptr inbounds i8, ptr %0, i64 8
  store i32 %8, ptr %.sroa.3.0..sroa_idx, align 4
  %.sroa.4.0..sroa_idx = getelementptr inbounds i8, ptr %0, i64 12
  store i32 %10, ptr %.sroa.4.0..sroa_idx, align 4
  %11 = mul nsw i32 %6, %1
  %12 = add nsw i32 %11, %4
  %13 = getelementptr inbounds i8, ptr %0, i64 16
  store i32 %12, ptr %13, align 4
  %14 = add nsw i32 %8, %4
  %15 = add nsw i32 %14, %11
  %16 = getelementptr inbounds i8, ptr %0, i64 20
  store i32 %15, ptr %16, align 4
  %17 = add nsw i32 %10, %6
  %18 = mul nsw i32 %17, %1
  %19 = add nsw i32 %18, %4
  %20 = getelementptr inbounds i8, ptr %0, i64 32
  store i32 %19, ptr %20, align 4
  %21 = add nsw i32 %18, %14
  %22 = getelementptr inbounds i8, ptr %0, i64 36
  store i32 %21, ptr %22, align 4
  %23 = shl nsw i32 %8, 1
  %24 = add nsw i32 %23, %4
  %25 = add nsw i32 %24, %11
  %26 = getelementptr inbounds i8, ptr %0, i64 24
  store i32 %25, ptr %26, align 4
  %27 = add nsw i32 %24, %8
  %28 = add nsw i32 %27, %11
  %29 = getelementptr inbounds i8, ptr %0, i64 28
  store i32 %28, ptr %29, align 4
  %30 = add nsw i32 %18, %24
  %31 = getelementptr inbounds i8, ptr %0, i64 40
  store i32 %30, ptr %31, align 4
  %32 = add nsw i32 %27, %18
  %33 = getelementptr inbounds i8, ptr %0, i64 44
  store i32 %32, ptr %33, align 4
  %34 = shl nsw i32 %10, 1
  %35 = add nsw i32 %34, %6
  %36 = mul nsw i32 %35, %1
  %37 = add nsw i32 %36, %24
  %38 = getelementptr inbounds i8, ptr %0, i64 56
  store i32 %37, ptr %38, align 4
  %39 = add nsw i32 %36, %27
  %40 = getelementptr inbounds i8, ptr %0, i64 60
  store i32 %39, ptr %40, align 4
  %41 = add nsw i32 %35, %10
  %42 = mul nsw i32 %41, %1
  %43 = add nsw i32 %42, %24
  %44 = getelementptr inbounds i8, ptr %0, i64 72
  store i32 %43, ptr %44, align 4
  %45 = add nsw i32 %42, %27
  %46 = getelementptr inbounds i8, ptr %0, i64 76
  store i32 %45, ptr %46, align 4
  %47 = add nsw i32 %36, %4
  %48 = getelementptr inbounds i8, ptr %0, i64 48
  store i32 %47, ptr %48, align 4
  %49 = add nsw i32 %36, %14
  %50 = getelementptr inbounds i8, ptr %0, i64 52
  store i32 %49, ptr %50, align 4
  %51 = add nsw i32 %42, %4
  %52 = getelementptr inbounds i8, ptr %0, i64 64
  store i32 %51, ptr %52, align 4
  %53 = add nsw i32 %42, %14
  %54 = getelementptr inbounds i8, ptr %0, i64 68
  store i32 %53, ptr %54, align 4
  %55 = getelementptr inbounds i8, ptr %0, i64 96
  store i32 %1, ptr %55, align 4
  ret void
}